target datalayout = "e-m:e-p270:32:32-p271:32:32-p272:64:64-i64:64-i128:128-f80:128-n8:16:32:64-S128"
target triple = "x86_64-pc-linux-gnu"

%class.ComprDataIO = type <{ i8, [7 x i8], i64, ptr, i8, [7 x i8], i64, ptr, i64, ptr, i64, i64, i8, i8, i8, i8, [4 x i8], ptr, ptr, ptr, ptr, ptr, ptr, ptr, i32, i32, i8, i8, i8, [5 x i8], i64, i64, i64, i64, i64, i64, i64, %class.DataHash, %class.DataHash, %class.DataHash, i8, i8, [6 x i8] }>
%class.DataHash = type { i32, i32, ptr }

; Function Attrs: mustprogress nounwind uwtable
define void @_ZN11ComprDataIOD2Ev(ptr noundef nonnull align 8 dereferenceable(266) %0) unnamed_addr #4 align 2 {
  %2 = alloca ptr, align 8
  store ptr %0, ptr %2, align 8
  %3 = load ptr, ptr %2, align 8
  %4 = getelementptr inbounds %class.ComprDataIO, ptr %3, i32 0, i32 22
  %5 = load ptr, ptr %4, align 8
  %6 = icmp eq ptr %5, null
  br i1 %6, label %8, label %7

7:                                                ; preds = %1
  call void @_ZN9CryptDataD2Ev(ptr noundef nonnull align 8 dereferenceable(2516) %5) #10
  call void @_ZdlPv(ptr noundef %5) #9
  br label %8

8:                                                ; preds = %7, %1
  %9 = getelementptr inbounds %class.ComprDataIO, ptr %3, i32 0, i32 23
  %10 = load ptr, ptr %9, align 8
  %11 = icmp eq ptr %10, null
  br i1 %11, label %13, label %12

12:                                               ; preds = %8
  call void @_ZN9CryptDataD2Ev(ptr noundef nonnull align 8 dereferenceable(2516) %10) #10
  call void @_ZdlPv(ptr noundef %10) #9
  br label %13

13:                                               ; preds = %12, %8
  %14 = getelementptr inbounds %class.ComprDataIO, ptr %3, i32 0, i32 39
  call void @_ZN8DataHashD1Ev(ptr noundef nonnull align 8 dereferenceable(16) %14) #10
  %15 = getelementptr inbounds %class.ComprDataIO, ptr %3, i32 0, i32 38
  call void @_ZN8DataHashD1Ev(ptr noundef nonnull align 8 dereferenceable(16) %15) #10
  %16 = getelementptr inbounds %class.ComprDataIO, ptr %3, i32 0, i32 37
  call void @_ZN8DataHashD1Ev(ptr noundef nonnull align 8 dereferenceable(16) %16) #10
  ret void
}