; Function Attrs: mustprogress nounwind uwtable
define void @_ZN11ComprDataIOD2Ev(ptr noundef nonnull align 8 dereferenceable(266) %0) unnamed_addr #6 align 2 {
  %2 = getelementptr inbounds nuw i8, ptr %0, i64 128
  %3 = load ptr, ptr %2, align 8
  %4 = icmp eq ptr %3, null
  br i1 %4, label %6, label %5

5:                                                ; preds = %1
  tail call void @_ZN9CryptDataD2Ev(ptr noundef nonnull align 8 dereferenceable(2516) %3) #16
  tail call void @_ZdlPv(ptr noundef nonnull %3) #15
  br label %6

6:                                                ; preds = %5, %1
  %7 = getelementptr inbounds nuw i8, ptr %0, i64 136
  %8 = load ptr, ptr %7, align 8
  %9 = icmp eq ptr %8, null
  br i1 %9, label %11, label %10

10:                                               ; preds = %6
  tail call void @_ZN9CryptDataD2Ev(ptr noundef nonnull align 8 dereferenceable(2516) %8) #16
  tail call void @_ZdlPv(ptr noundef nonnull %8) #15
  br label %11

11:                                               ; preds = %10, %6
  %12 = getelementptr inbounds nuw i8, ptr %0, i64 248
  tail call void @_ZN8DataHashD1Ev(ptr noundef nonnull align 8 dereferenceable(16) %12) #16
  %13 = getelementptr inbounds nuw i8, ptr %0, i64 232
  tail call void @_ZN8DataHashD1Ev(ptr noundef nonnull align 8 dereferenceable(16) %13) #16
  %14 = getelementptr inbounds nuw i8, ptr %0, i64 216
  tail call void @_ZN8DataHashD1Ev(ptr noundef nonnull align 8 dereferenceable(16) %14) #16
  ret void
}